target datalayout = "e-m:e-p270:32:32-p271:32:32-p272:64:64-i64:64-i128:128-f80:128-n8:16:32:64-S128"
target triple = "x86_64-pc-linux-gnu"

%struct.ObjectAddress = type { i32, i32, i32 }

@myTempNamespace = internal global i32 0, align 4

; Function Attrs: nounwind uwtable
define internal void @RemoveTempRelations(i32 noundef %0) #0 {
  %2 = alloca i32, align 4
  %3 = alloca %struct.ObjectAddress, align 4
  store i32 %0, ptr %2, align 4
  call void @llvm.lifetime.start.p0(i64 12, ptr %3) #14
  %4 = getelementptr inbounds nuw %struct.ObjectAddress, ptr %3, i32 0, i32 0
  store i32 2615, ptr %4, align 4
  %5 = load i32, ptr %2, align 4
  %6 = getelementptr inbounds nuw %struct.ObjectAddress, ptr %3, i32 0, i32 1
  store i32 %5, ptr %6, align 4
  %7 = getelementptr inbounds nuw %struct.ObjectAddress, ptr %3, i32 0, i32 2
  store i32 0, ptr %7, align 4
  call void @performDeletion(ptr noundef %3, i32 noundef 1, i32 noundef 29)
  call void @llvm.lifetime.end.p0(i64 12, ptr %3) #14
  ret void
}

; Function Attrs: nounwind uwtable
define internal void @RemoveTempRelationsCallback(i32 noundef %0, i64 noundef %1) #0 {
  %3 = alloca i32, align 4
  %4 = alloca i64, align 8
  store i32 %0, ptr %3, align 4
  store i64 %1, ptr %4, align 8
  %5 = load i32, ptr @myTempNamespace, align 4
  %6 = icmp ne i32 %5, 0
  br i1 %6, label %7, label %10

7:                                                ; preds = %2
  call void @AbortOutOfAnyTransaction()
  call void @StartTransactionCommand()
  %8 = call ptr @GetTransactionSnapshot()
  call void @PushActiveSnapshot(ptr noundef %8)
  %9 = load i32, ptr @myTempNamespace, align 4
  call void @RemoveTempRelations(i32 noundef %9)
  call void @PopActiveSnapshot()
  call void @CommitTransactionCommand()
  br label %10

10:                                               ; preds = %7, %2
  ret void
}