; Function Attrs: nounwind uwtable
define internal void @RemoveTempRelationsCallback(i32 %0, i64 %1) #0 {
  %3 = alloca %struct.ObjectAddress, align 4
  %4 = load i32, ptr @myTempNamespace, align 4
  %.not = icmp eq i32 %4, 0
  br i1 %.not, label %10, label %5

5:                                                ; preds = %2
  tail call void @AbortOutOfAnyTransaction() #19
  tail call void @StartTransactionCommand() #19
  %6 = tail call ptr @GetTransactionSnapshot() #19
  tail call void @PushActiveSnapshot(ptr noundef %6) #19
  %7 = load i32, ptr @myTempNamespace, align 4
  call void @llvm.lifetime.start.p0(i64 12, ptr nonnull %3) #19
  store i32 2615, ptr %3, align 4
  %8 = getelementptr inbounds nuw i8, ptr %3, i64 4
  store i32 %7, ptr %8, align 4
  %9 = getelementptr inbounds nuw i8, ptr %3, i64 8
  store i32 0, ptr %9, align 4
  call void @performDeletion(ptr noundef nonnull %3, i32 noundef 1, i32 noundef 29) #19
  call void @llvm.lifetime.end.p0(i64 12, ptr nonnull %3) #19
  call void @PopActiveSnapshot() #19
  call void @CommitTransactionCommand() #19
  br label %10

10:                                               ; preds = %5, %2
  ret void
}